; Function Attrs: nounwind uwtable
define ptr @l_Lean_Environment_Replay_throwKernelException___boxed(ptr noundef %0, ptr noundef %1, ptr noundef %2, ptr noundef %3) local_unnamed_addr #0 {
  %5 = tail call ptr @l_Lean_Environment_Replay_throwKernelException(ptr noundef %0, ptr poison, ptr poison, ptr noundef %3)
  %6 = ptrtoint ptr %2 to i64
  %7 = and i64 %6, 1
  %.not = icmp eq i64 %7, 0
  br i1 %.not, label %8, label %lean_dec.exit7

8:                                                ; preds = %4
  %9 = load i32, ptr %2, align 4, !tbaa !4
  %10 = icmp sgt i32 %9, 1
  br i1 %10, label %11, label %13, !prof !12

11:                                               ; preds = %8
  %12 = add nsw i32 %9, -1
  store i32 %12, ptr %2, align 4, !tbaa !4
  br label %lean_dec.exit7

13:                                               ; preds = %8
  %.not.i = icmp eq i32 %9, 0
  br i1 %.not.i, label %lean_dec.exit7, label %14

14:                                               ; preds = %13
  tail call void @lean_dec_ref_cold(ptr noundef nonnull %2) #5
  br label %lean_dec.exit7

lean_dec.exit7:                                   ; preds = %14, %13, %11, %4
  %15 = ptrtoint ptr %1 to i64
  %16 = and i64 %15, 1
  %.not10 = icmp eq i64 %16, 0
  br i1 %.not10, label %17, label %lean_dec.exit

17:                                               ; preds = %lean_dec.exit7
  %18 = load i32, ptr %1, align 4, !tbaa !4
  %19 = icmp sgt i32 %18, 1
  br i1 %19, label %20, label %22, !prof !12

20:                                               ; preds = %17
  %21 = add nsw i32 %18, -1
  store i32 %21, ptr %1, align 4, !tbaa !4
  br label %lean_dec.exit

22:                                               ; preds = %17
  %.not.i8 = icmp eq i32 %18, 0
  br i1 %.not.i8, label %lean_dec.exit, label %23

23:                                               ; preds = %22
  tail call void @lean_dec_ref_cold(ptr noundef nonnull %1) #5
  br label %lean_dec.exit

lean_dec.exit:                                    ; preds = %23, %22, %20, %lean_dec.exit7
  ret ptr %5
}